target datalayout = "e-m:e-p270:32:32-p271:32:32-p272:64:64-i64:64-i128:128-f80:128-n8:16:32:64-S128"
target triple = "x86_64-pc-linux-gnu"

; Function Attrs: cold nounwind optsize uwtable
define internal float @ath(float noundef %0, float noundef %1) #0 {
  %3 = alloca float, align 4
  %4 = alloca float, align 4
  store float %0, ptr %3, align 4, !tbaa !42
  store float %1, ptr %4, align 4, !tbaa !42
  %5 = load float, ptr %3, align 4, !tbaa !42
  %6 = fdiv nsz float %5, 1.000000e+03
  store float %6, ptr %3, align 4, !tbaa !42
  %7 = load float, ptr %3, align 4, !tbaa !42
  %8 = fpext nsz float %7 to double
  %9 = call nsz double @llvm.pow.f64(double %8, double -8.000000e-01)
  %10 = load float, ptr %3, align 4, !tbaa !42
  %11 = fpext nsz float %10 to double
  %12 = fsub nsz double %11, 3.400000e+00
  %13 = fmul nsz double -6.000000e-01, %12
  %14 = load float, ptr %3, align 4, !tbaa !42
  %15 = fpext nsz float %14 to double
  %16 = fsub nsz double %15, 3.400000e+00
  %17 = fmul nsz double %13, %16
  %18 = call nsz double @llvm.exp.f64(double %17)
  %19 = fmul nsz double 6.800000e+00, %18
  %20 = fneg nsz double %19
  %21 = call nsz double @llvm.fmuladd.f64(double 3.640000e+00, double %9, double %20)
  %22 = load float, ptr %3, align 4, !tbaa !42
  %23 = fpext nsz float %22 to double
  %24 = fsub nsz double %23, 0x4021666666666666
  %25 = fmul nsz double -1.500000e-01, %24
  %26 = load float, ptr %3, align 4, !tbaa !42
  %27 = fpext nsz float %26 to double
  %28 = fsub nsz double %27, 0x4021666666666666
  %29 = fmul nsz double %25, %28
  %30 = call nsz double @llvm.exp.f64(double %29)
  %31 = call nsz double @llvm.fmuladd.f64(double 6.000000e+00, double %30, double %21)
  %32 = load float, ptr %4, align 4, !tbaa !42
  %33 = fpext nsz float %32 to double
  %34 = call nsz double @llvm.fmuladd.f64(double 4.000000e-02, double %33, double 6.000000e-01)
  %35 = fmul nsz double %34, 1.000000e-03
  %36 = load float, ptr %3, align 4, !tbaa !42
  %37 = fpext nsz float %36 to double
  %38 = fmul nsz double %35, %37
  %39 = load float, ptr %3, align 4, !tbaa !42
  %40 = fpext nsz float %39 to double
  %41 = fmul nsz double %38, %40
  %42 = load float, ptr %3, align 4, !tbaa !42
  %43 = fpext nsz float %42 to double
  %44 = fmul nsz double %41, %43
  %45 = load float, ptr %3, align 4, !tbaa !42
  %46 = fpext nsz float %45 to double
  %47 = call nsz double @llvm.fmuladd.f64(double %44, double %46, double %31)
  %48 = fptrunc nsz double %47 to float
  ret float %48
}