; Function Attrs: cold mustprogress nofree norecurse nosync nounwind optsize willreturn memory(none) uwtable
define internal fastcc float @ath(float noundef %0) unnamed_addr #5 {
  %2 = fdiv nsz float %0, 1.000000e+03
  %3 = fpext nsz float %2 to double
  %4 = tail call nsz double @llvm.pow.f64(double %3, double -8.000000e-01)
  %5 = fadd nsz double %3, -3.400000e+00
  %6 = fmul nsz double %5, -6.000000e-01
  %7 = fmul nsz double %5, %6
  %8 = tail call nsz double @llvm.exp.f64(double %7)
  %9 = fmul nsz double %8, -6.800000e+00
  %10 = tail call nsz double @llvm.fmuladd.f64(double %4, double 3.640000e+00, double %9)
  %11 = fadd nsz double %3, 0xC021666666666666
  %12 = fmul nsz double %11, -1.500000e-01
  %13 = fmul nsz double %11, %12
  %14 = tail call nsz double @llvm.exp.f64(double %13)
  %15 = tail call nsz double @llvm.fmuladd.f64(double %14, double 6.000000e+00, double %10)
  %16 = fmul nsz double %3, 7.600000e-04
  %17 = fmul nsz double %16, %3
  %18 = fmul nsz double %17, %3
  %19 = tail call nsz double @llvm.fmuladd.f64(double %18, double %3, double %15)
  %20 = fptrunc nsz double %19 to float
  ret float %20
}